target datalayout = "e-m:e-p270:32:32-p271:32:32-p272:64:64-i64:64-i128:128-f80:128-n8:16:32:64-S128"
target triple = "x86_64-pc-linux-gnu"

; Function Attrs: inlinehint nounwind uwtable
define internal i32 @Abc_MaxInt(i32 noundef %0, i32 noundef %1) #2 {
  %3 = alloca i32, align 4
  %4 = alloca i32, align 4
  store i32 %0, ptr %3, align 4, !tbaa !8
  store i32 %1, ptr %4, align 4, !tbaa !8
  %5 = load i32, ptr %3, align 4, !tbaa !8
  %6 = load i32, ptr %4, align 4, !tbaa !8
  %7 = icmp sgt i32 %5, %6
  br i1 %7, label %8, label %10

8:                                                ; preds = %2
  %9 = load i32, ptr %3, align 4, !tbaa !8
  br label %12

10:                                               ; preds = %2
  %11 = load i32, ptr %4, align 4, !tbaa !8
  br label %12

12:                                               ; preds = %10, %8
  %13 = phi i32 [ %9, %8 ], [ %11, %10 ]
  ret i32 %13
}

; Function Attrs: nounwind uwtable
define void @Dau_DsdGenRandPerm(ptr noundef %0, i32 noundef %1) #0 {
  %3 = alloca ptr, align 8
  %4 = alloca i32, align 4
  %5 = alloca i32, align 4
  %6 = alloca i32, align 4
  %7 = alloca i32, align 4
  store ptr %0, ptr %3, align 8, !tbaa !14
  store i32 %1, ptr %4, align 4, !tbaa !8
  call void @llvm.lifetime.start.p0(i64 4, ptr %5) #9
  call void @llvm.lifetime.start.p0(i64 4, ptr %6) #9
  store i32 0, ptr %5, align 4, !tbaa !8
  br label %8

8:                                                ; preds = %18, %2
  %9 = load i32, ptr %5, align 4, !tbaa !8
  %10 = load i32, ptr %4, align 4, !tbaa !8
  %11 = icmp slt i32 %9, %10
  br i1 %11, label %12, label %21

12:                                               ; preds = %8
  %13 = load i32, ptr %5, align 4, !tbaa !8
  %14 = load ptr, ptr %3, align 8, !tbaa !14
  %15 = load i32, ptr %5, align 4, !tbaa !8
  %16 = sext i32 %15 to i64
  %17 = getelementptr inbounds i32, ptr %14, i64 %16
  store i32 %13, ptr %17, align 4, !tbaa !8
  br label %18

18:                                               ; preds = %12
  %19 = load i32, ptr %5, align 4, !tbaa !8
  %20 = add nsw i32 %19, 1
  store i32 %20, ptr %5, align 4, !tbaa !8
  br label %8, !llvm.loop !16

21:                                               ; preds = %8
  store i32 0, ptr %5, align 4, !tbaa !8
  br label %22

22:                                               ; preds = %49, %21
  %23 = load i32, ptr %5, align 4, !tbaa !8
  %24 = load i32, ptr %4, align 4, !tbaa !8
  %25 = icmp slt i32 %23, %24
  br i1 %25, label %26, label %52

26:                                               ; preds = %22
  %27 = call i32 @rand() #9
  %28 = load i32, ptr %4, align 4, !tbaa !8
  %29 = srem i32 %27, %28
  store i32 %29, ptr %6, align 4, !tbaa !8
  call void @llvm.lifetime.start.p0(i64 4, ptr %7) #9
  %30 = load ptr, ptr %3, align 8, !tbaa !14
  %31 = load i32, ptr %5, align 4, !tbaa !8
  %32 = sext i32 %31 to i64
  %33 = getelementptr inbounds i32, ptr %30, i64 %32
  %34 = load i32, ptr %33, align 4, !tbaa !8
  store i32 %34, ptr %7, align 4, !tbaa !8
  %35 = load ptr, ptr %3, align 8, !tbaa !14
  %36 = load i32, ptr %6, align 4, !tbaa !8
  %37 = sext i32 %36 to i64
  %38 = getelementptr inbounds i32, ptr %35, i64 %37
  %39 = load i32, ptr %38, align 4, !tbaa !8
  %40 = load ptr, ptr %3, align 8, !tbaa !14
  %41 = load i32, ptr %5, align 4, !tbaa !8
  %42 = sext i32 %41 to i64
  %43 = getelementptr inbounds i32, ptr %40, i64 %42
  store i32 %39, ptr %43, align 4, !tbaa !8
  %44 = load i32, ptr %7, align 4, !tbaa !8
  %45 = load ptr, ptr %3, align 8, !tbaa !14
  %46 = load i32, ptr %6, align 4, !tbaa !8
  %47 = sext i32 %46 to i64
  %48 = getelementptr inbounds i32, ptr %45, i64 %47
  store i32 %44, ptr %48, align 4, !tbaa !8
  call void @llvm.lifetime.end.p0(i64 4, ptr %7) #9
  br label %49

49:                                               ; preds = %26
  %50 = load i32, ptr %5, align 4, !tbaa !8
  %51 = add nsw i32 %50, 1
  store i32 %51, ptr %5, align 4, !tbaa !8
  br label %22, !llvm.loop !17

52:                                               ; preds = %22
  call void @llvm.lifetime.end.p0(i64 4, ptr %6) #9
  call void @llvm.lifetime.end.p0(i64 4, ptr %5) #9
  ret void
}

; Function Attrs: nounwind uwtable
define i32 @Dau_DsdFindVarNum(ptr noundef %0) #0 {
  %2 = alloca ptr, align 8
  %3 = alloca i32, align 4
  store ptr %0, ptr %2, align 8, !tbaa !3
  call void @llvm.lifetime.start.p0(i64 4, ptr %3) #9
  store i32 0, ptr %3, align 4, !tbaa !8
  %4 = load ptr, ptr %2, align 8, !tbaa !3
  %5 = getelementptr inbounds i8, ptr %4, i32 -1
  store ptr %5, ptr %2, align 8, !tbaa !3
  br label %6

6:                                                ; preds = %28, %1
  %7 = load ptr, ptr %2, align 8, !tbaa !3
  %8 = getelementptr inbounds nuw i8, ptr %7, i32 1
  store ptr %8, ptr %2, align 8, !tbaa !3
  %9 = load i8, ptr %8, align 1, !tbaa !10
  %10 = icmp ne i8 %9, 0
  br i1 %10, label %11, label %29

11:                                               ; preds = %6
  %12 = load ptr, ptr %2, align 8, !tbaa !3
  %13 = load i8, ptr %12, align 1, !tbaa !10
  %14 = sext i8 %13 to i32
  %15 = icmp sge i32 %14, 97
  br i1 %15, label %16, label %28

16:                                               ; preds = %11
  %17 = load ptr, ptr %2, align 8, !tbaa !3
  %18 = load i8, ptr %17, align 1, !tbaa !10
  %19 = sext i8 %18 to i32
  %20 = icmp sle i32 %19, 122
  br i1 %20, label %21, label %28

21:                                               ; preds = %16
  %22 = load i32, ptr %3, align 4, !tbaa !8
  %23 = load ptr, ptr %2, align 8, !tbaa !3
  %24 = load i8, ptr %23, align 1, !tbaa !10
  %25 = sext i8 %24 to i32
  %26 = sub nsw i32 %25, 97
  %27 = call i32 @Abc_MaxInt(i32 noundef %22, i32 noundef %26)
  store i32 %27, ptr %3, align 4, !tbaa !8
  br label %28

28:                                               ; preds = %21, %16, %11
  br label %6, !llvm.loop !13

29:                                               ; preds = %6
  %30 = load i32, ptr %3, align 4, !tbaa !8
  %31 = add nsw i32 %30, 1
  call void @llvm.lifetime.end.p0(i64 4, ptr %3) #9
  ret i32 %31
}

; Function Attrs: nounwind uwtable
define void @Dau_DsdPermute(ptr noundef %0) #0 {
  %2 = alloca ptr, align 8
  %3 = alloca [16 x i32], align 16
  %4 = alloca i32, align 4
  store ptr %0, ptr %2, align 8, !tbaa !3
  call void @llvm.lifetime.start.p0(i64 64, ptr %3) #9
  call void @llvm.lifetime.start.p0(i64 4, ptr %4) #9
  %5 = load ptr, ptr %2, align 8, !tbaa !3
  %6 = call i32 @Dau_DsdFindVarNum(ptr noundef %5)
  store i32 %6, ptr %4, align 4, !tbaa !8
  %7 = getelementptr inbounds [16 x i32], ptr %3, i64 0, i64 0
  %8 = load i32, ptr %4, align 4, !tbaa !8
  call void @Dau_DsdGenRandPerm(ptr noundef %7, i32 noundef %8)
  %9 = load ptr, ptr %2, align 8, !tbaa !3
  %10 = getelementptr inbounds i8, ptr %9, i32 -1
  store ptr %10, ptr %2, align 8, !tbaa !3
  br label %11

11:                                               ; preds = %39, %1
  %12 = load ptr, ptr %2, align 8, !tbaa !3
  %13 = getelementptr inbounds nuw i8, ptr %12, i32 1
  store ptr %13, ptr %2, align 8, !tbaa !3
  %14 = load i8, ptr %13, align 1, !tbaa !10
  %15 = icmp ne i8 %14, 0
  br i1 %15, label %16, label %40

16:                                               ; preds = %11
  %17 = load ptr, ptr %2, align 8, !tbaa !3
  %18 = load i8, ptr %17, align 1, !tbaa !10
  %19 = sext i8 %18 to i32
  %20 = icmp sge i32 %19, 97
  br i1 %20, label %21, label %39

21:                                               ; preds = %16
  %22 = load ptr, ptr %2, align 8, !tbaa !3
  %23 = load i8, ptr %22, align 1, !tbaa !10
  %24 = sext i8 %23 to i32
  %25 = load i32, ptr %4, align 4, !tbaa !8
  %26 = add nsw i32 97, %25
  %27 = icmp slt i32 %24, %26
  br i1 %27, label %28, label %39

28:                                               ; preds = %21
  %29 = load ptr, ptr %2, align 8, !tbaa !3
  %30 = load i8, ptr %29, align 1, !tbaa !10
  %31 = sext i8 %30 to i32
  %32 = sub nsw i32 %31, 97
  %33 = sext i32 %32 to i64
  %34 = getelementptr inbounds [16 x i32], ptr %3, i64 0, i64 %33
  %35 = load i32, ptr %34, align 4, !tbaa !8
  %36 = add nsw i32 97, %35
  %37 = trunc i32 %36 to i8
  %38 = load ptr, ptr %2, align 8, !tbaa !3
  store i8 %37, ptr %38, align 1, !tbaa !10
  br label %39

39:                                               ; preds = %28, %21, %16
  br label %11, !llvm.loop !18

40:                                               ; preds = %11
  call void @llvm.lifetime.end.p0(i64 4, ptr %4) #9
  call void @llvm.lifetime.end.p0(i64 64, ptr %3) #9
  ret void
}