; Function Attrs: nounwind uwtable
define void @Dau_DsdPermute(ptr noundef captures(none) %0) local_unnamed_addr #3 {
  %2 = alloca [16 x i32], align 16
  call void @llvm.lifetime.start.p0(i64 64, ptr nonnull %2) #29
  %3 = load i8, ptr %0, align 1, !tbaa !3
  %.not9.i = icmp eq i8 %3, 0
  br i1 %.not9.i, label %.lr.ph.preheader.i, label %.lr.ph.i

.lr.ph.i:                                         ; preds = %1, %.lr.ph.i
  %4 = phi i8 [ %10, %.lr.ph.i ], [ %3, %1 ]
  %5 = phi ptr [ %9, %.lr.ph.i ], [ %0, %1 ]
  %.010.i = phi i32 [ %.1.i, %.lr.ph.i ], [ 0, %1 ]
  %6 = add i8 %4, -97
  %or.cond.i = icmp ult i8 %6, 26
  %7 = zext nneg i8 %6 to i32
  %8 = tail call i32 @llvm.smax.i32(i32 %.010.i, i32 %7)
  %.1.i = select i1 %or.cond.i, i32 %8, i32 %.010.i
  %9 = getelementptr inbounds nuw i8, ptr %5, i64 1
  %10 = load i8, ptr %9, align 1, !tbaa !3
  %.not.i = icmp eq i8 %10, 0
  br i1 %.not.i, label %Dau_DsdFindVarNum.exit, label %.lr.ph.i, !llvm.loop !10

Dau_DsdFindVarNum.exit:                           ; preds = %.lr.ph.i
  %11 = add nuw nsw i32 %.1.i, 1
  br label %.lr.ph.preheader.i

.lr.ph.preheader.i:                               ; preds = %Dau_DsdFindVarNum.exit, %1
  %.0.lcssa.i14 = phi i32 [ %11, %Dau_DsdFindVarNum.exit ], [ 1, %1 ]
  %wide.trip.count.i = zext nneg i32 %.0.lcssa.i14 to i64
  br label %.lr.ph.i11

.lr.ph.i11:                                       ; preds = %.lr.ph.i11, %.lr.ph.preheader.i
  %indvars.iv.i = phi i64 [ 0, %.lr.ph.preheader.i ], [ %indvars.iv.next.i, %.lr.ph.i11 ]
  %12 = getelementptr inbounds nuw i32, ptr %2, i64 %indvars.iv.i
  %13 = trunc nuw nsw i64 %indvars.iv.i to i32
  store i32 %13, ptr %12, align 4, !tbaa !6
  %indvars.iv.next.i = add nuw nsw i64 %indvars.iv.i, 1
  %exitcond.not.i = icmp eq i64 %indvars.iv.next.i, %wide.trip.count.i
  br i1 %exitcond.not.i, label %.lr.ph21.i, label %.lr.ph.i11, !llvm.loop !11

.lr.ph21.i:                                       ; preds = %.lr.ph.i11, %.lr.ph21.i
  %indvars.iv23.i = phi i64 [ %indvars.iv.next24.i, %.lr.ph21.i ], [ 0, %.lr.ph.i11 ]
  %14 = tail call i32 @rand() #29
  %15 = srem i32 %14, %.0.lcssa.i14
  %16 = getelementptr inbounds nuw i32, ptr %2, i64 %indvars.iv23.i
  %17 = load i32, ptr %16, align 4, !tbaa !6
  %18 = sext i32 %15 to i64
  %19 = getelementptr inbounds i32, ptr %2, i64 %18
  %20 = load i32, ptr %19, align 4, !tbaa !6
  store i32 %20, ptr %16, align 4, !tbaa !6
  store i32 %17, ptr %19, align 4, !tbaa !6
  %indvars.iv.next24.i = add nuw nsw i64 %indvars.iv23.i, 1
  %exitcond27.not.i = icmp eq i64 %indvars.iv.next24.i, %wide.trip.count.i
  br i1 %exitcond27.not.i, label %Dau_DsdGenRandPerm.exit, label %.lr.ph21.i, !llvm.loop !12

Dau_DsdGenRandPerm.exit:                          ; preds = %.lr.ph21.i
  %.pre = load i8, ptr %0, align 1, !tbaa !3
  %.not15 = icmp eq i8 %.pre, 0
  br i1 %.not15, label %._crit_edge, label %.lr.ph

.lr.ph:                                           ; preds = %Dau_DsdGenRandPerm.exit
  %21 = add nuw nsw i32 %.0.lcssa.i14, 97
  br label %22

22:                                               ; preds = %.lr.ph, %35
  %23 = phi i8 [ %.pre, %.lr.ph ], [ %37, %35 ]
  %24 = phi ptr [ %0, %.lr.ph ], [ %36, %35 ]
  %25 = sext i8 %23 to i32
  %26 = icmp sgt i8 %23, 96
  %27 = icmp sgt i32 %21, %25
  %or.cond = select i1 %26, i1 %27, i1 false
  br i1 %or.cond, label %28, label %35

28:                                               ; preds = %22
  %29 = add nsw i32 %25, -97
  %30 = zext nneg i32 %29 to i64
  %31 = getelementptr inbounds nuw [16 x i32], ptr %2, i64 0, i64 %30
  %32 = load i32, ptr %31, align 4, !tbaa !6
  %33 = trunc i32 %32 to i8
  %34 = add i8 %33, 97
  store i8 %34, ptr %24, align 1, !tbaa !3
  br label %35

35:                                               ; preds = %28, %22
  %36 = getelementptr inbounds nuw i8, ptr %24, i64 1
  %37 = load i8, ptr %36, align 1, !tbaa !3
  %.not = icmp eq i8 %37, 0
  br i1 %.not, label %._crit_edge, label %22, !llvm.loop !13

._crit_edge:                                      ; preds = %35, %Dau_DsdGenRandPerm.exit
  call void @llvm.lifetime.end.p0(i64 64, ptr nonnull %2) #29
  ret void
}